target datalayout = "e-m:e-p270:32:32-p271:32:32-p272:64:64-i64:64-i128:128-f80:128-n8:16:32:64-S128"
target triple = "x86_64-pc-linux-gnu"

%struct._object = type { %union.anon, ptr }
%union.anon = type { i64 }
%struct.PyVarObject = type { %struct._object, i64 }
%struct.PyTupleObject = type { %struct.PyVarObject, [1 x ptr] }
%union._PyStackRef = type { i64 }
%struct._PyInterpreterFrame = type { %union._PyStackRef, ptr, %union._PyStackRef, ptr, ptr, ptr, ptr, ptr, ptr, i16, i8, i8, [1 x %union._PyStackRef] }
%struct.anon = type { i32, i32 }
%struct.PyCodeObject = type { %struct.PyVarObject, ptr, ptr, ptr, i32, i32, i32, i32, i32, i32, i32, i32, i32, i32, i32, i32, ptr, ptr, ptr, ptr, ptr, ptr, ptr, ptr, ptr, i64, ptr, i64, i32, ptr, [1 x i8] }
%union._Py_CODEUNIT = type { i16 }

@.str.62 = private unnamed_addr constant [4 x i8] c"OiO\00", align 1

; Function Attrs: inlinehint nounwind uwtable
define internal ptr @_PyFrame_GetBytecode(ptr noundef %0) #2 {
  %2 = alloca ptr, align 8
  store ptr %0, ptr %2, align 8, !tbaa !37
  %3 = load ptr, ptr %2, align 8, !tbaa !37
  %4 = call ptr @_PyFrame_GetCode(ptr noundef %3)
  %5 = getelementptr inbounds nuw %struct.PyCodeObject, ptr %4, i32 0, i32 30
  %6 = getelementptr inbounds [1 x i8], ptr %5, i64 0, i64 0
  ret ptr %6
}

; Function Attrs: alwaysinline nounwind uwtable
define internal i32 @_Py_IsImmortal(ptr noundef %0) #3 {
  %2 = alloca ptr, align 8
  store ptr %0, ptr %2, align 8, !tbaa !11
  %3 = load ptr, ptr %2, align 8, !tbaa !11
  %4 = getelementptr inbounds nuw %struct._object, ptr %3, i32 0, i32 0
  %5 = getelementptr inbounds nuw %struct.anon, ptr %4, i32 0, i32 0
  %6 = load i32, ptr %5, align 8, !tbaa !13
  %7 = icmp slt i32 %6, 0
  %8 = zext i1 %7 to i32
  ret i32 %8
}

; Function Attrs: inlinehint nounwind uwtable
define internal zeroext i1 @_PyFrame_IsIncomplete(ptr noundef %0) #2 {
  %2 = alloca i1, align 1
  %3 = alloca ptr, align 8
  store ptr %0, ptr %3, align 8, !tbaa !37
  %4 = load ptr, ptr %3, align 8, !tbaa !37
  %5 = getelementptr inbounds nuw %struct._PyInterpreterFrame, ptr %4, i32 0, i32 10
  %6 = load i8, ptr %5, align 2, !tbaa !82
  %7 = sext i8 %6 to i32
  %8 = icmp sge i32 %7, 3
  br i1 %8, label %9, label %10

9:                                                ; preds = %1
  store i1 true, ptr %2, align 1
  br label %31

10:                                               ; preds = %1
  %11 = load ptr, ptr %3, align 8, !tbaa !37
  %12 = getelementptr inbounds nuw %struct._PyInterpreterFrame, ptr %11, i32 0, i32 10
  %13 = load i8, ptr %12, align 2, !tbaa !82
  %14 = sext i8 %13 to i32
  %15 = icmp ne i32 %14, 1
  br i1 %15, label %16, label %29

16:                                               ; preds = %10
  %17 = load ptr, ptr %3, align 8, !tbaa !37
  %18 = getelementptr inbounds nuw %struct._PyInterpreterFrame, ptr %17, i32 0, i32 7
  %19 = load ptr, ptr %18, align 8, !tbaa !38
  %20 = load ptr, ptr %3, align 8, !tbaa !37
  %21 = call ptr @_PyFrame_GetBytecode(ptr noundef %20)
  %22 = load ptr, ptr %3, align 8, !tbaa !37
  %23 = call ptr @_PyFrame_GetCode(ptr noundef %22)
  %24 = getelementptr inbounds nuw %struct.PyCodeObject, ptr %23, i32 0, i32 28
  %25 = load i32, ptr %24, align 8, !tbaa !202
  %26 = sext i32 %25 to i64
  %27 = getelementptr %union._Py_CODEUNIT, ptr %21, i64 %26
  %28 = icmp ult ptr %19, %27
  br label %29

29:                                               ; preds = %16, %10
  %30 = phi i1 [ false, %10 ], [ %28, %16 ]
  store i1 %30, ptr %2, align 1
  br label %31

31:                                               ; preds = %29, %9
  %32 = load i1, ptr %2, align 1
  ret i1 %32
}

; Function Attrs: inlinehint nounwind uwtable
define internal void @PyTuple_SET_ITEM(ptr noundef %0, i64 noundef %1, ptr noundef %2) #2 {
  %4 = alloca ptr, align 8
  %5 = alloca i64, align 8
  %6 = alloca ptr, align 8
  %7 = alloca ptr, align 8
  store ptr %0, ptr %4, align 8, !tbaa !11
  store i64 %1, ptr %5, align 8, !tbaa !187
  store ptr %2, ptr %6, align 8, !tbaa !11
  call void @llvm.lifetime.start.p0(i64 8, ptr %7) #7
  %8 = load ptr, ptr %4, align 8, !tbaa !11
  store ptr %8, ptr %7, align 8, !tbaa !50
  %9 = load ptr, ptr %6, align 8, !tbaa !11
  %10 = load ptr, ptr %7, align 8, !tbaa !50
  %11 = getelementptr inbounds nuw %struct.PyTupleObject, ptr %10, i32 0, i32 1
  %12 = load i64, ptr %5, align 8, !tbaa !187
  %13 = getelementptr [1 x ptr], ptr %11, i64 0, i64 %12
  store ptr %9, ptr %13, align 8, !tbaa !11
  call void @llvm.lifetime.end.p0(i64 8, ptr %7) #7
  ret void
}

; Function Attrs: alwaysinline nounwind uwtable
define internal void @Py_DECREF(ptr noundef %0) #3 {
  %2 = alloca ptr, align 8
  store ptr %0, ptr %2, align 8, !tbaa !11
  %3 = load ptr, ptr %2, align 8, !tbaa !11
  %4 = call i32 @_Py_IsImmortal(ptr noundef %3)
  %5 = icmp ne i32 %4, 0
  br i1 %5, label %6, label %7

6:                                                ; preds = %1
  br label %16

7:                                                ; preds = %1
  %8 = load ptr, ptr %2, align 8, !tbaa !11
  %9 = getelementptr inbounds nuw %struct._object, ptr %8, i32 0, i32 0
  %10 = getelementptr inbounds nuw %struct.anon, ptr %9, i32 0, i32 0
  %11 = load i32, ptr %10, align 8, !tbaa !13
  %12 = add i32 %11, -1
  store i32 %12, ptr %10, align 8, !tbaa !13
  %13 = icmp eq i32 %12, 0
  br i1 %13, label %14, label %16

14:                                               ; preds = %7
  %15 = load ptr, ptr %2, align 8, !tbaa !11
  call void @_Py_Dealloc(ptr noundef %15)
  br label %16

16:                                               ; preds = %6, %14, %7
  ret void
}

; Function Attrs: inlinehint nounwind uwtable
define internal ptr @_PyFrame_GetCode(ptr noundef %0) #2 {
  %2 = alloca ptr, align 8
  %3 = alloca ptr, align 8
  store ptr %0, ptr %2, align 8, !tbaa !37
  call void @llvm.lifetime.start.p0(i64 8, ptr %3) #7
  %4 = load ptr, ptr %2, align 8, !tbaa !37
  %5 = getelementptr inbounds nuw %struct._PyInterpreterFrame, ptr %4, i32 0, i32 0
  %6 = load i64, ptr %5, align 8, !tbaa !13
  %7 = inttoptr i64 %6 to ptr
  store ptr %7, ptr %3, align 8, !tbaa !11
  %8 = load ptr, ptr %3, align 8, !tbaa !11
  call void @llvm.lifetime.end.p0(i64 8, ptr %3) #7
  ret ptr %8
}

; Function Attrs: inlinehint nounwind uwtable
define internal ptr @_PyFrame_GetFirstComplete(ptr noundef %0) #2 {
  %2 = alloca ptr, align 8
  store ptr %0, ptr %2, align 8, !tbaa !37
  br label %3

3:                                                ; preds = %11, %1
  %4 = load ptr, ptr %2, align 8, !tbaa !37
  %5 = icmp ne ptr %4, null
  br i1 %5, label %6, label %9

6:                                                ; preds = %3
  %7 = load ptr, ptr %2, align 8, !tbaa !37
  %8 = call zeroext i1 @_PyFrame_IsIncomplete(ptr noundef %7)
  br label %9

9:                                                ; preds = %6, %3
  %10 = phi i1 [ false, %3 ], [ %8, %6 ]
  br i1 %10, label %11, label %15

11:                                               ; preds = %9
  %12 = load ptr, ptr %2, align 8, !tbaa !37
  %13 = getelementptr inbounds nuw %struct._PyInterpreterFrame, ptr %12, i32 0, i32 1
  %14 = load ptr, ptr %13, align 8, !tbaa !67
  store ptr %14, ptr %2, align 8, !tbaa !37
  br label %3, !llvm.loop !71

15:                                               ; preds = %9
  %16 = load ptr, ptr %2, align 8, !tbaa !37
  ret ptr %16
}

; Function Attrs: nounwind uwtable
define internal ptr @compute_cr_origin(i32 noundef %0, ptr noundef %1) #0 {
  %3 = alloca ptr, align 8
  %4 = alloca i32, align 4
  %5 = alloca ptr, align 8
  %6 = alloca ptr, align 8
  %7 = alloca i32, align 4
  %8 = alloca ptr, align 8
  %9 = alloca i32, align 4
  %10 = alloca i32, align 4
  %11 = alloca ptr, align 8
  %12 = alloca i32, align 4
  %13 = alloca ptr, align 8
  store i32 %0, ptr %4, align 4, !tbaa !14
  store ptr %1, ptr %5, align 8, !tbaa !37
  call void @llvm.lifetime.start.p0(i64 8, ptr %6) #7
  %14 = load ptr, ptr %5, align 8, !tbaa !37
  store ptr %14, ptr %6, align 8, !tbaa !37
  call void @llvm.lifetime.start.p0(i64 4, ptr %7) #7
  store i32 0, ptr %7, align 4, !tbaa !14
  br label %15

15:                                               ; preds = %29, %2
  %16 = load ptr, ptr %6, align 8, !tbaa !37
  %17 = icmp ne ptr %16, null
  br i1 %17, label %18, label %22

18:                                               ; preds = %15
  %19 = load i32, ptr %7, align 4, !tbaa !14
  %20 = load i32, ptr %4, align 4, !tbaa !14
  %21 = icmp slt i32 %19, %20
  br label %22

22:                                               ; preds = %18, %15
  %23 = phi i1 [ false, %15 ], [ %21, %18 ]
  br i1 %23, label %24, label %32

24:                                               ; preds = %22
  %25 = load ptr, ptr %6, align 8, !tbaa !37
  %26 = getelementptr inbounds nuw %struct._PyInterpreterFrame, ptr %25, i32 0, i32 1
  %27 = load ptr, ptr %26, align 8, !tbaa !67
  %28 = call ptr @_PyFrame_GetFirstComplete(ptr noundef %27)
  store ptr %28, ptr %6, align 8, !tbaa !37
  br label %29

29:                                               ; preds = %24
  %30 = load i32, ptr %7, align 4, !tbaa !14
  %31 = add i32 %30, 1
  store i32 %31, ptr %7, align 4, !tbaa !14
  br label %15, !llvm.loop !73

32:                                               ; preds = %22
  call void @llvm.lifetime.start.p0(i64 8, ptr %8) #7
  %33 = load i32, ptr %7, align 4, !tbaa !14
  %34 = sext i32 %33 to i64
  %35 = call ptr @PyTuple_New(i64 noundef %34)
  store ptr %35, ptr %8, align 8, !tbaa !11
  %36 = load ptr, ptr %8, align 8, !tbaa !11
  %37 = icmp eq ptr %36, null
  br i1 %37, label %38, label %39

38:                                               ; preds = %32
  store ptr null, ptr %3, align 8
  store i32 1, ptr %9, align 4
  br label %82

39:                                               ; preds = %32
  %40 = load ptr, ptr %5, align 8, !tbaa !37
  store ptr %40, ptr %6, align 8, !tbaa !37
  call void @llvm.lifetime.start.p0(i64 4, ptr %10) #7
  store i32 0, ptr %10, align 4, !tbaa !14
  br label %41

41:                                               ; preds = %75, %39
  %42 = load i32, ptr %10, align 4, !tbaa !14
  %43 = load i32, ptr %7, align 4, !tbaa !14
  %44 = icmp slt i32 %42, %43
  br i1 %44, label %46, label %45

45:                                               ; preds = %41
  store i32 5, ptr %9, align 4
  br label %78

46:                                               ; preds = %41
  call void @llvm.lifetime.start.p0(i64 8, ptr %11) #7
  %47 = load ptr, ptr %6, align 8, !tbaa !37
  %48 = call ptr @_PyFrame_GetCode(ptr noundef %47)
  store ptr %48, ptr %11, align 8, !tbaa !9
  call void @llvm.lifetime.start.p0(i64 4, ptr %12) #7
  %49 = load ptr, ptr %6, align 8, !tbaa !37
  %50 = call i32 @PyUnstable_InterpreterFrame_GetLine(ptr noundef %49)
  store i32 %50, ptr %12, align 4, !tbaa !14
  call void @llvm.lifetime.start.p0(i64 8, ptr %13) #7
  %51 = load ptr, ptr %11, align 8, !tbaa !9
  %52 = getelementptr inbounds nuw %struct.PyCodeObject, ptr %51, i32 0, i32 18
  %53 = load ptr, ptr %52, align 8, !tbaa !74
  %54 = load i32, ptr %12, align 4, !tbaa !14
  %55 = load ptr, ptr %11, align 8, !tbaa !9
  %56 = getelementptr inbounds nuw %struct.PyCodeObject, ptr %55, i32 0, i32 19
  %57 = load ptr, ptr %56, align 8, !tbaa !75
  %58 = call ptr (ptr, ...) @Py_BuildValue(ptr noundef @.str.62, ptr noundef %53, i32 noundef %54, ptr noundef %57)
  store ptr %58, ptr %13, align 8, !tbaa !11
  %59 = load ptr, ptr %13, align 8, !tbaa !11
  %60 = icmp ne ptr %59, null
  br i1 %60, label %63, label %61

61:                                               ; preds = %46
  %62 = load ptr, ptr %8, align 8, !tbaa !11
  call void @Py_DECREF(ptr noundef %62)
  store ptr null, ptr %3, align 8
  store i32 1, ptr %9, align 4
  br label %72

63:                                               ; preds = %46
  %64 = load ptr, ptr %8, align 8, !tbaa !11
  %65 = load i32, ptr %10, align 4, !tbaa !14
  %66 = sext i32 %65 to i64
  %67 = load ptr, ptr %13, align 8, !tbaa !11
  call void @PyTuple_SET_ITEM(ptr noundef %64, i64 noundef %66, ptr noundef %67)
  %68 = load ptr, ptr %6, align 8, !tbaa !37
  %69 = getelementptr inbounds nuw %struct._PyInterpreterFrame, ptr %68, i32 0, i32 1
  %70 = load ptr, ptr %69, align 8, !tbaa !67
  %71 = call ptr @_PyFrame_GetFirstComplete(ptr noundef %70)
  store ptr %71, ptr %6, align 8, !tbaa !37
  store i32 0, ptr %9, align 4
  br label %72

72:                                               ; preds = %63, %61
  call void @llvm.lifetime.end.p0(i64 8, ptr %13) #7
  call void @llvm.lifetime.end.p0(i64 4, ptr %12) #7
  call void @llvm.lifetime.end.p0(i64 8, ptr %11) #7
  %73 = load i32, ptr %9, align 4
  switch i32 %73, label %78 [
    i32 0, label %74
  ]

74:                                               ; preds = %72
  br label %75

75:                                               ; preds = %74
  %76 = load i32, ptr %10, align 4, !tbaa !14
  %77 = add i32 %76, 1
  store i32 %77, ptr %10, align 4, !tbaa !14
  br label %41, !llvm.loop !76

78:                                               ; preds = %72, %45
  call void @llvm.lifetime.end.p0(i64 4, ptr %10) #7
  %79 = load i32, ptr %9, align 4
  switch i32 %79, label %82 [
    i32 5, label %80
  ]

80:                                               ; preds = %78
  %81 = load ptr, ptr %8, align 8, !tbaa !11
  store ptr %81, ptr %3, align 8
  store i32 1, ptr %9, align 4
  br label %82

82:                                               ; preds = %80, %78, %38
  call void @llvm.lifetime.end.p0(i64 8, ptr %8) #7
  call void @llvm.lifetime.end.p0(i64 4, ptr %7) #7
  call void @llvm.lifetime.end.p0(i64 8, ptr %6) #7
  %83 = load ptr, ptr %3, align 8
  ret ptr %83
}