; Function Attrs: nounwind uwtable
define internal fastcc ptr @compute_cr_origin(i32 noundef range(i32 1, 0) %0, ptr noundef %1) unnamed_addr #2 {
  %3 = icmp ne ptr %1, null
  %4 = icmp sgt i32 %0, 0
  %5 = and i1 %3, %4
  br i1 %5, label %.lr.ph, label %._crit_edge.thread

.lr.ph:                                           ; preds = %2, %_PyFrame_GetFirstComplete.exit
  %.02752 = phi ptr [ %.08.i, %_PyFrame_GetFirstComplete.exit ], [ %1, %2 ]
  %.03051 = phi i32 [ %24, %_PyFrame_GetFirstComplete.exit ], [ 0, %2 ]
  %6 = getelementptr inbounds nuw i8, ptr %.02752, i64 8
  %7 = load ptr, ptr %6, align 8, !tbaa !31
  %.not7.i = icmp eq ptr %7, null
  br i1 %.not7.i, label %_PyFrame_GetFirstComplete.exit.thread, label %.lr.ph.i

.lr.ph.i:                                         ; preds = %.lr.ph, %_PyFrame_IsIncomplete.exit.thread.i
  %.08.i = phi ptr [ %22, %_PyFrame_IsIncomplete.exit.thread.i ], [ %7, %.lr.ph ]
  %8 = getelementptr inbounds nuw i8, ptr %.08.i, i64 74
  %9 = load i8, ptr %8, align 2, !tbaa !128
  %10 = icmp sgt i8 %9, 2
  br i1 %10, label %_PyFrame_IsIncomplete.exit.thread.i, label %11

11:                                               ; preds = %.lr.ph.i
  %.not.i.i = icmp eq i8 %9, 1
  br i1 %.not.i.i, label %_PyFrame_GetFirstComplete.exit, label %_PyFrame_IsIncomplete.exit.i

_PyFrame_IsIncomplete.exit.i:                     ; preds = %11
  %12 = getelementptr inbounds nuw i8, ptr %.08.i, i64 56
  %13 = load ptr, ptr %12, align 8, !tbaa !30
  %.val7.i.i = load i64, ptr %.08.i, align 8, !tbaa !4
  %14 = inttoptr i64 %.val7.i.i to ptr
  %15 = getelementptr inbounds nuw i8, ptr %14, i64 208
  %16 = getelementptr inbounds nuw i8, ptr %14, i64 192
  %17 = load i32, ptr %16, align 8, !tbaa !129
  %18 = sext i32 %17 to i64
  %19 = getelementptr %union._Py_CODEUNIT, ptr %15, i64 %18
  %20 = icmp ult ptr %13, %19
  br i1 %20, label %_PyFrame_IsIncomplete.exit.thread.i, label %_PyFrame_GetFirstComplete.exit

_PyFrame_IsIncomplete.exit.thread.i:              ; preds = %_PyFrame_IsIncomplete.exit.i, %.lr.ph.i
  %21 = getelementptr inbounds nuw i8, ptr %.08.i, i64 8
  %22 = load ptr, ptr %21, align 8, !tbaa !31
  %.not.i36 = icmp eq ptr %22, null
  br i1 %.not.i36, label %_PyFrame_GetFirstComplete.exit.thread, label %.lr.ph.i, !llvm.loop !130

_PyFrame_GetFirstComplete.exit.thread:            ; preds = %.lr.ph, %_PyFrame_IsIncomplete.exit.thread.i
  %23 = add nuw nsw i32 %.03051, 1
  br label %._crit_edge

_PyFrame_GetFirstComplete.exit:                   ; preds = %11, %_PyFrame_IsIncomplete.exit.i
  %24 = add nuw nsw i32 %.03051, 1
  %25 = icmp slt i32 %24, %0
  br i1 %25, label %.lr.ph, label %._crit_edge, !llvm.loop !132

._crit_edge:                                      ; preds = %_PyFrame_GetFirstComplete.exit, %_PyFrame_GetFirstComplete.exit.thread
  %.030.lcssa = phi i32 [ %23, %_PyFrame_GetFirstComplete.exit.thread ], [ %24, %_PyFrame_GetFirstComplete.exit ]
  %26 = zext i32 %.030.lcssa to i64
  %27 = tail call ptr @PyTuple_New(i64 noundef %26) #8
  %28 = icmp eq ptr %27, null
  br i1 %28, label %Py_DECREF.exit.thread, label %.lr.ph56

._crit_edge.thread:                               ; preds = %2
  %29 = tail call ptr @PyTuple_New(i64 noundef 0) #8
  br label %Py_DECREF.exit.thread

.lr.ph56:                                         ; preds = %._crit_edge
  %30 = getelementptr inbounds nuw i8, ptr %27, i64 24
  br label %31

31:                                               ; preds = %.lr.ph56, %Py_DECREF.exit.thread48
  %indvars.iv = phi i64 [ 0, %.lr.ph56 ], [ %indvars.iv.next, %Py_DECREF.exit.thread48 ]
  %.12855 = phi ptr [ %1, %.lr.ph56 ], [ %.22950, %Py_DECREF.exit.thread48 ]
  %.128.val = load i64, ptr %.12855, align 8, !tbaa !4
  %32 = inttoptr i64 %.128.val to ptr
  %33 = tail call i32 @PyUnstable_InterpreterFrame_GetLine(ptr noundef nonnull %.12855) #8
  %34 = getelementptr inbounds nuw i8, ptr %32, i64 112
  %35 = load ptr, ptr %34, align 8, !tbaa !133
  %36 = getelementptr inbounds nuw i8, ptr %32, i64 120
  %37 = load ptr, ptr %36, align 8, !tbaa !134
  %38 = tail call ptr (ptr, ...) @Py_BuildValue(ptr noundef nonnull @.str.62, ptr noundef %35, i32 noundef %33, ptr noundef %37) #8
  %.not.not = icmp eq ptr %38, null
  br i1 %.not.not, label %39, label %45

39:                                               ; preds = %31
  %40 = load i32, ptr %27, align 8, !tbaa !4
  %.not.i = icmp sgt i32 %40, -1
  br i1 %.not.i, label %41, label %Py_DECREF.exit.thread

41:                                               ; preds = %39
  %42 = add nsw i32 %40, -1
  store i32 %42, ptr %27, align 8, !tbaa !4
  %43 = icmp eq i32 %42, 0
  br i1 %43, label %44, label %Py_DECREF.exit.thread

44:                                               ; preds = %41
  tail call void @_Py_Dealloc(ptr noundef nonnull %27) #8
  br label %Py_DECREF.exit.thread

45:                                               ; preds = %31
  %46 = getelementptr [1 x ptr], ptr %30, i64 0, i64 %indvars.iv
  store ptr %38, ptr %46, align 8, !tbaa !32
  %47 = getelementptr inbounds nuw i8, ptr %.12855, i64 8
  %48 = load ptr, ptr %47, align 8, !tbaa !31
  %.not7.i37 = icmp eq ptr %48, null
  br i1 %.not7.i37, label %Py_DECREF.exit.thread48, label %.lr.ph.i38

.lr.ph.i38:                                       ; preds = %45, %_PyFrame_IsIncomplete.exit.thread.i44
  %.08.i39 = phi ptr [ %63, %_PyFrame_IsIncomplete.exit.thread.i44 ], [ %48, %45 ]
  %49 = getelementptr inbounds nuw i8, ptr %.08.i39, i64 74
  %50 = load i8, ptr %49, align 2, !tbaa !128
  %51 = icmp sgt i8 %50, 2
  br i1 %51, label %_PyFrame_IsIncomplete.exit.thread.i44, label %52

52:                                               ; preds = %.lr.ph.i38
  %.not.i.i40 = icmp eq i8 %50, 1
  br i1 %.not.i.i40, label %Py_DECREF.exit.thread48, label %_PyFrame_IsIncomplete.exit.i41

_PyFrame_IsIncomplete.exit.i41:                   ; preds = %52
  %53 = getelementptr inbounds nuw i8, ptr %.08.i39, i64 56
  %54 = load ptr, ptr %53, align 8, !tbaa !30
  %.val7.i.i42 = load i64, ptr %.08.i39, align 8, !tbaa !4
  %55 = inttoptr i64 %.val7.i.i42 to ptr
  %56 = getelementptr inbounds nuw i8, ptr %55, i64 208
  %57 = getelementptr inbounds nuw i8, ptr %55, i64 192
  %58 = load i32, ptr %57, align 8, !tbaa !129
  %59 = sext i32 %58 to i64
  %60 = getelementptr %union._Py_CODEUNIT, ptr %56, i64 %59
  %61 = icmp ult ptr %54, %60
  br i1 %61, label %_PyFrame_IsIncomplete.exit.thread.i44, label %Py_DECREF.exit.thread48

_PyFrame_IsIncomplete.exit.thread.i44:            ; preds = %_PyFrame_IsIncomplete.exit.i41, %.lr.ph.i38
  %62 = getelementptr inbounds nuw i8, ptr %.08.i39, i64 8
  %63 = load ptr, ptr %62, align 8, !tbaa !31
  %.not.i45 = icmp eq ptr %63, null
  br i1 %.not.i45, label %Py_DECREF.exit.thread48, label %.lr.ph.i38, !llvm.loop !130

Py_DECREF.exit.thread48:                          ; preds = %52, %_PyFrame_IsIncomplete.exit.i41, %_PyFrame_IsIncomplete.exit.thread.i44, %45
  %.22950 = phi ptr [ null, %45 ], [ %.08.i39, %_PyFrame_IsIncomplete.exit.i41 ], [ null, %_PyFrame_IsIncomplete.exit.thread.i44 ], [ %.08.i39, %52 ]
  %indvars.iv.next = add nuw nsw i64 %indvars.iv, 1
  %exitcond.not = icmp eq i64 %indvars.iv.next, %26
  br i1 %exitcond.not, label %Py_DECREF.exit.thread, label %31, !llvm.loop !135

Py_DECREF.exit.thread:                            ; preds = %Py_DECREF.exit.thread48, %._crit_edge.thread, %44, %41, %39, %._crit_edge
  %.0 = phi ptr [ null, %._crit_edge ], [ null, %39 ], [ null, %41 ], [ null, %44 ], [ %29, %._crit_edge.thread ], [ %27, %Py_DECREF.exit.thread48 ]
  ret ptr %.0
}